(dp0
S'831322803882020612_1335161138'
p1
(dp2
S'comment_count'
p3
I0
sS'like_count'
p4
I176
sS'user'
p5
S'futbolling'
p6
ssS'831443643632989196_1443650012'
p7
(dp8
S'comment_count'
p9
I0
sS'like_count'
p10
I2
sS'user'
p11
S'barcelonafansclub10'
p12
ssS'831438294956958921_200946080'
p13
(dp14
g9
I4
sg10
I19
sg11
S'cristianoronaldoig'
p15
ssS'831338094452694701_1529586686'
p16
(dp17
g3
I2
sg4
I10
sg5
S'asmam72'
p18
ssS'831083462829699376_1466477715'
p19
(dp20
g9
I2
sg10
I15
sg11
S'completelysoccer'
p21
ssS'830646927991419117_1527653243'
p22
(dp23
g3
I3
sg4
I20
sS'location'
p24
ccopy_reg
_reconstructor
p25
(cinstagram.models
Location
p26
c__builtin__
object
p27
Ntp28
Rp29
(dp30
S'point'
p31
g25
(cinstagram.models
Point
p32
g27
Ntp33
Rp34
(dp35
S'latitude'
p36
F41.096281107
sS'longitude'
p37
F-78.718964495
sbsS'id'
p38
S'0'
p39
sS'name'
p40
S''
p41
sbsg5
S'fuckkxit'
p42
ssS'831445283842399066_364206637'
p43
(dp44
S'comment_count'
p45
I0
sS'like_count'
p46
I7
sS'user'
p47
S'barceloniesta10'
p48
ssS'831425503143755997_46491375'
p49
(dp50
g9
I0
sg10
I9
sg11
S'thyagurodrigues'
p51
ssS'831331225444094467_1008709675'
p52
(dp53
g3
I0
sg4
I11
sg5
S'hajarxmadridista'
p54
ssS'831331091474181322_1365405922'
p55
(dp56
g3
I0
sg4
I110
sg5
S'realmadrid_q8_news1'
p57
ssS'831326737501367732_1404425874'
p58
(dp59
g3
I0
sg4
I67
sg5
S'r10_fc'
p60
ssS'831400207785036495_1428433489'
p61
(dp62
g9
I3
sg10
I37
sg11
S'weneymarfans'
p63
ssS'831344194404084238_1431310633'
p64
(dp65
g3
I1
sg4
I142
sg24
g25
(g26
g27
Ntp66
Rp67
(dp68
g31
g25
(g32
g27
Ntp69
Rp70
(dp71
g36
F35.844046895
sg37
F50.986563454
sbsg38
g39
sg40
g41
sbsg5
S'messi_roccuzzo_family'
p72
ssS'831326358575252657_361684864'
p73
(dp74
g3
I4
sg4
I16
sg5
S'nuny89'
p75
ssS'831325436529761693_1529586686'
p76
(dp77
g3
I2
sg4
I19
sg5
S'asmam72'
p78
ssS'831386352980463483_1483840130'
p79
(dp80
g9
I1
sg10
I26
sg11
S'fcbarcelonea'
p81
ssS'831452625366793355_1449075878'
p82
(dp83
g9
I0
sg10
I3
sS'location'
p84
g25
(g26
g27
Ntp85
Rp86
(dp87
g31
g25
(g32
g27
Ntp88
Rp89
(dp90
g36
F41.505983211
sg37
F-73.243476609
sbsg38
S'0'
p91
sg40
g41
sbsg11
S'fcb_picz'
p92
ssS'831397769559026561_353421929'
p93
(dp94
g9
I2
sg10
I8
sg11
S'kcalsavara'
p95
ssS'831463147561641044_1447693928'
p96
(dp97
g45
I0
sg46
I0
sg47
S'messi_fanatics'
p98
ssS'831438363536647074_1529373831'
p99
(dp100
g9
I0
sg10
I11
sg11
S'richeditz_215'
p101
ssS'831321952557932044_325978270'
p102
(dp103
g3
I0
sg4
I15
sg5
S'teambarca_'
p104
ssS'831383442628415267_1483840130'
p105
(dp106
g9
I0
sg10
I25
sg11
S'fcbarcelonea'
p107
ssS'831375281848710778_1492907172'
p108
(dp109
g9
I0
sg10
I3
sg11
S'leo_messi_barca96'
p110
ssS'831394459516015033_1520217947'
p111
(dp112
g9
I1
sg10
I6
sg11
S'balonparado'
p113
ssS'831340957092394025_1423918692'
p114
(dp115
g3
I3
sg4
I69
sg5
S'messi_10_barca_10'
p116
ssS'831453574012267882_274323770'
p117
(dp118
g9
I0
sg10
I8
sg11
S'funshinebearsofbarca'
p119
ssS'831414214963257848_389656559'
p120
(dp121
g9
I0
sg10
I5
sg11
S'misssix3'
p122
ssS'831382407667126028_1483840130'
p123
(dp124
g9
I0
sg10
I23
sg11
S'fcbarcelonea'
p125
ssS'831383960524295990_1483840130'
p126
(dp127
g9
I2
sg10
I27
sg11
S'fcbarcelonea'
p128
ssS'831383739450920750_1483840130'
p129
(dp130
g9
I1
sg10
I28
sg11
S'fcbarcelonea'
p131
ssS'831387237257187221_1483840130'
p132
(dp133
g9
I0
sg10
I38
sg11
S'fcbarcelonea'
p134
ssS'831409962969293584_31970087'
p135
(dp136
g9
I0
sg10
I11
sg11
S'kongkiu'
p137
ssS'831407438090603876_1483840130'
p138
(dp139
g9
I0
sg10
I22
sg11
S'fcbarcelonea'
p140
ssS'831370080283514243_586123060'
p141
(dp142
g9
I0
sg10
I2
sg84
g25
(g26
g27
Ntp143
Rp144
(dp145
g31
g25
(g32
g27
Ntp146
Rp147
(dp148
g36
F25.008012798
sg37
F121.522504838
sbsg38
g91
sg40
g41
sbsg11
S'sammiinliao'
p149
ssS'831361843082918794_1480244445'
p150
(dp151
g9
I0
sg10
I8
sg11
S'messiedits_'
p152
ssS'831337053688062140_346393223'
p153
(dp154
g3
I3
sg4
I1246
sg5
S'fcb_b10'
p155
ssS'831018347535708182_1527653243'
p156
(dp157
g3
I1
sg4
I15
sg24
g25
(g26
g27
Ntp158
Rp159
(dp160
g31
g25
(g32
g27
Ntp161
Rp162
(dp163
g36
F41.101517826
sg37
F-78.718466107
sbsg38
g39
sg40
g41
sbsg5
S'fuckkxit'
p164
ssS'831425463080032705_364206637'
p165
(dp166
g9
I0
sg10
I5
sg11
S'barceloniesta10'
p167
ssS'831367136275494537_1509837204'
p168
(dp169
g9
I1
sg10
I20
sg11
S'salsa_ksr'
p170
ssS'831341034692343545_274750700'
p171
(dp172
g3
I0
sg4
I11
sg24
g25
(g26
g27
Ntp173
Rp174
(dp175
g31
g25
(g32
g27
Ntp176
Rp177
(dp178
g36
F45.478123627
sg37
F9.123897978
sbsg38
S'48506798'
p179
sg40
S'Stadio San Siro'
p180
sbsg5
S'victormartin23'
p181
ssS'831369713785426031_1385843251'
p182
(dp183
g9
I14
sg10
I31
sg11
S'pardisjr'
p184
ssS'831331592889114456_680698526'
p185
(dp186
g3
I0
sg4
I26
sg5
S'shadyalmuraishh'
p187
ssS'831327649469717971_1529586686'
p188
(dp189
g3
I1
sg4
I14
sg5
S'asmam72'
p190
ssS'831399732260847911_1128604303'
p191
(dp192
g9
I1
sg10
I8
sg11
S'c10humberto'
p193
ssS'831444441660145297_550907062'
p194
(dp195
g9
I9
sg10
I378
sg11
S'barcatalk'
p196
ssS'831334275834638274_274323770'
p197
(dp198
g3
I1
sg4
I30
sg5
S'funshinebearsofbarca'
p199
ssS'831432614564264227_1529304541'
p200
(dp201
g9
I0
sg10
I14
sg11
S'leomessi.fanz'
p202
ssS'831386665640660870_1483840130'
p203
(dp204
g9
I0
sg10
I35
sg11
S'fcbarcelonea'
p205
ssS'831452913700042227_501580892'
p206
(dp207
g9
I0
sg10
I4
sg11
S'jonatanwarrior'
p208
ssS'624125657553629721_856218131'
p209
(dp210
g9
I2
sg10
I25
sg11
S'antoniomallardo1990'
p211
ssS'831407709394963824_1483840130'
p212
(dp213
g9
I0
sg10
I18
sg11
S'fcbarcelonea'
p214
ssS'831357694945725259_1425825449'
p215
(dp216
g3
I3
sg4
I13
sg5
S'riksdesignz'
p217
ssS'831421018930768475_1251882649'
p218
(dp219
g9
I0
sg10
I21
sg84
g25
(g26
g27
Ntp220
Rp221
(dp222
g31
g25
(g32
g27
Ntp223
Rp224
(dp225
g36
F29.309393642
sg37
F47.721147174
sbsg38
g91
sg40
g41
sbsg11
S'moh9ale7'
p226
ssS'831373947666683358_586123060'
p227
(dp228
g9
I0
sg10
I2
sg84
g25
(g26
g27
Ntp229
Rp230
(dp231
g31
g25
(g32
g27
Ntp232
Rp233
(dp234
g36
F25.00801201
sg37
F121.521950096
sbsg38
g91
sg40
g41
sbsg11
S'sammiinliao'
p235
ssS'831336290785977919_1446453096'
p236
(dp237
g3
I22
sg4
I45
sg5
S'osmelhores___'
p238
ssS'831320335260704392_1360844470'
p239
(dp240
g3
I2
sg4
I38
sg5
S'adilovecara'
p241
ssS'831351588486454405_278098142'
p242
(dp243
g3
I0
sg4
I8
sg5
S'reemflaco'
p244
ssS'807278441018402124_1046178816'
p245
(dp246
g3
I0
sg4
I23
sg5
S'marisollegovini'
p247
ssS'729114851057312899_1046178816'
p248
(dp249
g3
I1
sg4
I21
sg5
S'marisollegovini'
p250
ssS'831465193023038598_1447693928'
p251
(dp252
g3
I0
sg4
I2
sg5
S'messi_fanatics'
p253
ssS'831386883224375181_1483840130'
p254
(dp255
g9
I2
sg10
I40
sg11
S'fcbarcelonea'
p256
ssS'831459338634913001_1281700248'
p257
(dp258
g9
I0
sg10
I0
sg11
S'valdesluiz'
p259
ssS'831388741175144041_1442450058'
p260
(dp261
g9
I1
sg10
I14
sg11
S'fc_neymessi'
p262
ssS'831334113185467368_1438291377'
p263
(dp264
g3
I0
sg4
I12
sg5
S'fifaparty'
p265
ssS'831306642115178692_1527653243'
p266
(dp267
g3
I1
sg4
I21
sg24
g25
(g26
g27
Ntp268
Rp269
(dp270
g31
g25
(g32
g27
Ntp271
Rp272
(dp273
g36
F41.096375277
sg37
F-78.718844131
sbsg38
g39
sg40
g41
sbsg5
S'fuckkxit'
p274
ssS'831326000049654932_1461565098'
p275
(dp276
g3
I1
sg4
I19
sg5
S'reina_marello'
p277
ssS'831378543153587628_1456165840'
p278
(dp279
g9
I0
sg10
I11
sg84
g25
(g26
g27
Ntp280
Rp281
(dp282
g31
g25
(g32
g27
Ntp283
Rp284
(dp285
g36
F33.895782921
sg37
F-117.521265177
sbsg38
g91
sg40
g41
sbsg11
S'leoandresmessi__10'
p286
ss.