(dp0
S'831443643632989196_1443650012'
p1
(dp2
S'comment_count'
p3
I0
sS'like_count'
p4
I2
sS'user'
p5
S'barcelonafansclub10'
p6
ssS'831438363536647074_1529373831'
p7
(dp8
g3
I0
sg4
I11
sg5
S'richeditz_215'
p9
ssS'831445283842399066_364206637'
p10
(dp11
S'comment_count'
p12
I0
sS'like_count'
p13
I7
sS'user'
p14
S'barceloniesta10'
p15
ssS'831326737501367732_1404425874'
p16
(dp17
S'comment_count'
p18
I0
sS'like_count'
p19
I67
sS'user'
p20
S'r10_fc'
p21
ssS'831400207785036495_1428433489'
p22
(dp23
g3
I3
sg4
I37
sg5
S'weneymarfans'
p24
ssS'831467803189807653_328109961'
p25
(dp26
S'comment_count'
p27
I0
sS'like_count'
p28
I17
sS'user'
p29
S'hkspa'
p30
ssS'831496259484599328_414812384'
p31
(dp32
g27
I7
sg28
I20
sg29
S'izzy.g_'
p33
ssS'831504478964123963_328109961'
p34
(dp35
g27
I0
sg28
I3
sg29
S'hkspa'
p36
ssS'831470102071052883_328109961'
p37
(dp38
g27
I0
sg28
I22
sg29
S'hkspa'
p39
ssS'831414214963257848_389656559'
p40
(dp41
g3
I0
sg4
I5
sg5
S'misssix3'
p42
ssS'831494995147851917_328109961'
p43
(dp44
g27
I0
sg28
I7
sg29
S'hkspa'
p45
ssS'831387237257187221_1483840130'
p46
(dp47
g3
I0
sg4
I38
sg5
S'fcbarcelonea'
p48
ssS'831468027392133674_328109961'
p49
(dp50
g27
I0
sg28
I26
sg29
S'hkspa'
p51
ssS'831494971831245483_1504975405'
p52
(dp53
g27
I0
sg28
I0
sg29
S'fcbpicture4'
p54
ssS'831409962969293584_31970087'
p55
(dp56
g3
I0
sg4
I11
sg5
S'kongkiu'
p57
ssS'831494287384217725_328109961'
p58
(dp59
g27
I0
sg28
I7
sS'location'
p60
ccopy_reg
_reconstructor
p61
(cinstagram.models
Location
p62
c__builtin__
object
p63
Ntp64
Rp65
(dp66
S'point'
p67
g61
(cinstagram.models
Point
p68
g63
Ntp69
Rp70
(dp71
S'latitude'
p72
F22.273316951
sS'longitude'
p73
F114.188722114
sbsS'id'
p74
S'76686444'
p75
sS'name'
p76
S'Hong Kong Stadium'
p77
sbsg29
S'hkspa'
p78
ssS'831370080283514243_586123060'
p79
(dp80
g3
I0
sg4
I2
sS'location'
p81
g61
(g62
g63
Ntp82
Rp83
(dp84
g67
g61
(g68
g63
Ntp85
Rp86
(dp87
g72
F25.008012798
sg73
F121.522504838
sbsg74
S'0'
p88
sg76
S''
p89
sbsg5
S'sammiinliao'
p90
ssS'831478247046386443_301887691'
p91
(dp92
g27
I35
sg28
I435
sg29
S'messifans101'
p93
ssS'831469970176969294_328109961'
p94
(dp95
g27
I0
sg28
I20
sg29
S'hkspa'
p96
ssS'831341034692343545_274750700'
p97
(dp98
g18
I0
sg19
I11
sS'location'
p99
g61
(g62
g63
Ntp100
Rp101
(dp102
g67
g61
(g68
g63
Ntp103
Rp104
(dp105
g72
F45.478123627
sg73
F9.123897978
sbsg74
S'48506798'
p106
sg76
S'Stadio San Siro'
p107
sbsg20
S'victormartin23'
p108
ssS'831327649469717971_1529586686'
p109
(dp110
g18
I1
sg19
I14
sg20
S'asmam72'
p111
ssS'831321952557932044_325978270'
p112
(dp113
g18
I0
sg19
I15
sg20
S'teambarca_'
p114
ssS'831386665640660870_1483840130'
p115
(dp116
g3
I0
sg4
I35
sg5
S'fcbarcelonea'
p117
ssS'831500180118326856_1318407066'
p118
(dp119
g27
I1
sg28
I15
sg29
S'phlovefootball'
p120
ssS'831407709394963824_1483840130'
p121
(dp122
g3
I0
sg4
I18
sg5
S'fcbarcelonea'
p123
ssS'831357694945725259_1425825449'
p124
(dp125
g18
I3
sg19
I13
sg20
S'riksdesignz'
p126
ssS'831373947666683358_586123060'
p127
(dp128
g3
I0
sg4
I2
sg81
g61
(g62
g63
Ntp129
Rp130
(dp131
g67
g61
(g68
g63
Ntp132
Rp133
(dp134
g72
F25.00801201
sg73
F121.521950096
sbsg74
g88
sg76
g89
sbsg5
S'sammiinliao'
p135
ssS'831386883224375181_1483840130'
p136
(dp137
g3
I2
sg4
I40
sg5
S'fcbarcelonea'
p138
ssS'831338094452694701_1529586686'
p139
(dp140
g18
I2
sg19
I10
sg20
S'asmam72'
p141
ssS'831083462829699376_1466477715'
p142
(dp143
g3
I2
sg4
I15
sg5
S'completelysoccer'
p144
ssS'831344194404084238_1431310633'
p145
(dp146
g18
I1
sg19
I142
sg99
g61
(g62
g63
Ntp147
Rp148
(dp149
g67
g61
(g68
g63
Ntp150
Rp151
(dp152
g72
F35.844046895
sg73
F50.986563454
sbsg74
S'0'
p153
sg76
g89
sbsg20
S'messi_roccuzzo_family'
p154
ssS'831326358575252657_361684864'
p155
(dp156
g18
I4
sg19
I16
sg20
S'nuny89'
p157
ssS'831386352980463483_1483840130'
p158
(dp159
g3
I1
sg4
I26
sg5
S'fcbarcelonea'
p160
ssS'831489373366540881_1504975405'
p161
(dp162
g27
I0
sg28
I1
sg29
S'fcbpicture4'
p163
ssS'831331225444094467_1008709675'
p164
(dp165
g18
I0
sg19
I11
sg20
S'hajarxmadridista'
p166
ssS'831375281848710778_1492907172'
p167
(dp168
g3
I0
sg4
I3
sg5
S'leo_messi_barca96'
p169
ssS'831340957092394025_1423918692'
p170
(dp171
g18
I3
sg19
I69
sg20
S'messi_10_barca_10'
p172
ssS'831383960524295990_1483840130'
p173
(dp174
g3
I2
sg4
I27
sg5
S'fcbarcelonea'
p175
ssS'831383739450920750_1483840130'
p176
(dp177
g3
I1
sg4
I28
sg5
S'fcbarcelonea'
p178
ssS'831499014260138637_1519256031'
p179
(dp180
g27
I0
sg28
I7
sg29
S'hemo_10z'
p181
ssS'831503374931036454_328109961'
p182
(dp183
g27
I0
sg28
I7
sg29
S'hkspa'
p184
ssS'831495882620635296_328109961'
p185
(dp186
g27
I0
sg28
I11
sg29
S'hkspa'
p187
ssS'831467406979074583_328109961'
p188
(dp189
g27
I0
sg28
I16
sg29
S'hkspa'
p190
ssS'831369713785426031_1385843251'
p191
(dp192
g3
I14
sg4
I31
sg5
S'pardisjr'
p193
ssS'831504309522630964_328109961'
p194
(dp195
g27
I0
sg28
I4
sg29
S'hkspa'
p196
ssS'831444441660145297_550907062'
p197
(dp198
g3
I9
sg4
I378
sg5
S'barcatalk'
p199
ssS'831452913700042227_501580892'
p200
(dp201
g3
I0
sg4
I4
sg5
S'jonatanwarrior'
p202
ssS'831480431246069330_1447661810'
p203
(dp204
g27
I0
sg28
I0
sg60
g61
(g62
g63
Ntp205
Rp206
(dp207
g67
g61
(g68
g63
Ntp208
Rp209
(dp210
g72
F5.824786853
sg73
F-55.15493067
sbsg74
S'0'
p211
sg76
g89
sbsg29
S'kleinepolo'
p212
ssS'831498841860697600_516134186'
p213
(dp214
g27
I0
sg28
I3
sg29
S'shakerj20'
p215
ssS'831463147561641044_1447693928'
p216
(dp217
g12
I0
sg13
I0
sg14
S'messi_fanatics'
p218
ssS'831502962832279837_328109961'
p219
(dp220
g27
I1
sg28
I10
sg60
g61
(g62
g63
Ntp221
Rp222
(dp223
g67
g61
(g68
g63
Ntp224
Rp225
(dp226
g72
F22.319934795
sg73
F114.163447331
sbsg74
g211
sg76
g89
sbsg29
S'hkspa'
p227
ssS'831351588486454405_278098142'
p228
(dp229
g18
I0
sg19
I8
sg20
S'reemflaco'
p230
ssS'831459338634913001_1281700248'
p231
(dp232
g3
I0
sg4
I0
sg5
S'valdesluiz'
p233
ssS'831334113185467368_1438291377'
p234
(dp235
g18
I0
sg19
I12
sg20
S'fifaparty'
p236
ssS'831306642115178692_1527653243'
p237
(dp238
g18
I1
sg19
I21
sg99
g61
(g62
g63
Ntp239
Rp240
(dp241
g67
g61
(g68
g63
Ntp242
Rp243
(dp244
g72
F41.096375277
sg73
F-78.718844131
sbsg74
g153
sg76
g89
sbsg20
S'fuckkxit'
p245
ssS'831388741175144041_1442450058'
p246
(dp247
g3
I1
sg4
I14
sg5
S'fc_neymessi'
p248
ssS'831503100397062433_328109961'
p249
(dp250
g27
I0
sg28
I9
sg60
g61
(g62
g63
Ntp251
Rp252
(dp253
g67
g61
(g68
g63
Ntp254
Rp255
(dp256
g72
F22.32001832
sg73
F114.163435253
sbsg74
g211
sg76
g89
sbsg29
S'hkspa'
p257
ssS'831438294956958921_200946080'
p258
(dp259
g3
I4
sg4
I19
sg5
S'cristianoronaldoig'
p260
ssS'831495354138331288_328109961'
p261
(dp262
g27
I0
sg28
I7
sg29
S'hkspa'
p263
ssS'831504638465116478_328109961'
p264
(dp265
g27
I0
sg28
I5
sg29
S'hkspa'
p266
ssS'831504096703645997_328109961'
p267
(dp268
g27
I0
sg28
I3
sg29
S'hkspa'
p269
ssS'831331091474181322_1365405922'
p270
(dp271
g18
I0
sg19
I110
sg20
S'realmadrid_q8_news1'
p272
ssS'831494520612685955_328109961'
p273
(dp274
g27
I0
sg28
I11
sg60
g61
(g62
g63
Ntp275
Rp276
(dp277
g67
g61
(g68
g63
Ntp278
Rp279
(dp280
g72
F22.273316951
sg73
F114.188722114
sbsg74
S'76686444'
p281
sg76
S'Hong Kong Stadium'
p282
sbsg29
S'hkspa'
p283
ssS'831325436529761693_1529586686'
p284
(dp285
g18
I2
sg19
I19
sg20
S'asmam72'
p286
ssS'831452625366793355_1449075878'
p287
(dp288
g3
I0
sg4
I3
sg81
g61
(g62
g63
Ntp289
Rp290
(dp291
g67
g61
(g68
g63
Ntp292
Rp293
(dp294
g72
F41.505983211
sg73
F-73.243476609
sbsg74
g88
sg76
g89
sbsg5
S'fcb_picz'
p295
ssS'831495143597023800_1519256031'
p296
(dp297
g27
I1
sg28
I7
sg29
S'hemo_10z'
p298
ssS'831477562411739398_1226854249'
p299
(dp300
g27
I0
sg28
I3
sg29
S'aminleomessi'
p301
ssS'831453574012267882_274323770'
p302
(dp303
g3
I0
sg4
I8
sg5
S'funshinebearsofbarca'
p304
ssS'831496699607669457_1504975405'
p305
(dp306
g27
I1
sg28
I0
sg29
S'fcbpicture4'
p307
ssS'831382407667126028_1483840130'
p308
(dp309
g3
I0
sg4
I23
sg5
S'fcbarcelonea'
p310
ssS'831492719112510093_1504975405'
p311
(dp312
g27
I0
sg28
I1
sg29
S'fcbpicture4'
p313
ssS'831497579573289582_1519256031'
p314
(dp315
g27
I0
sg28
I6
sg29
S'hemo_10z'
p316
ssS'831407438090603876_1483840130'
p317
(dp318
g3
I0
sg4
I22
sg5
S'fcbarcelonea'
p319
ssS'831479151432372169_522739418'
p320
(dp321
g27
I2
sg28
I0
sg29
S'abdelrahmanelzeiny'
p322
ssS'831469828728261194_328109961'
p323
(dp324
g27
I0
sg28
I20
sg29
S'hkspa'
p325
ssS'831331592889114456_680698526'
p326
(dp327
g18
I0
sg19
I26
sg20
S'shadyalmuraishh'
p328
ssS'831495217420798099_328109961'
p329
(dp330
g27
I0
sg28
I7
sg29
S'hkspa'
p331
ssS'831495480579819675_328109961'
p332
(dp333
g27
I0
sg28
I11
sg29
S'hkspa'
p334
ssS'831502687543331093_328109961'
p335
(dp336
g27
I0
sg28
I7
sg29
S'hkspa'
p337
ssS'624125657553629721_856218131'
p338
(dp339
g3
I2
sg4
I25
sg5
S'antoniomallardo1990'
p340
ssS'831467528412563997_328109961'
p341
(dp342
g27
I0
sg28
I16
sg29
S'hkspa'
p343
ssS'831322803882020612_1335161138'
p344
(dp345
g18
I0
sg19
I176
sg20
S'futbolling'
p346
ssS'831337053688062140_346393223'
p347
(dp348
g18
I3
sg19
I1246
sg20
S'fcb_b10'
p349
ssS'807278441018402124_1046178816'
p350
(dp351
g18
I0
sg19
I23
sg20
S'marisollegovini'
p352
ssS'831470474323921497_328109961'
p353
(dp354
g27
I0
sg28
I32
sg29
S'hkspa'
p355
ssS'831399732260847911_1128604303'
p356
(dp357
g3
I1
sg4
I8
sg5
S'c10humberto'
p358
ssS'831378543153587628_1456165840'
p359
(dp360
g3
I0
sg4
I11
sg81
g61
(g62
g63
Ntp361
Rp362
(dp363
g67
g61
(g68
g63
Ntp364
Rp365
(dp366
g72
F33.895782921
sg73
F-117.521265177
sbsg74
g88
sg76
g89
sbsg5
S'leoandresmessi__10'
p367
ssS'831465949144652025_364206637'
p368
(dp369
g27
I0
sg28
I7
sg29
S'barceloniesta10'
p370
ssS'831504217902254385_328109961'
p371
(dp372
g27
I0
sg28
I3
sg29
S'hkspa'
p373
ssS'729114851057312899_1046178816'
p374
(dp375
g18
I1
sg19
I21
sg20
S'marisollegovini'
p376
ssS'831494833675536520_328109961'
p377
(dp378
g27
I0
sg28
I14
sg29
S'hkspa'
p379
ssS'831425503143755997_46491375'
p380
(dp381
g3
I0
sg4
I9
sg5
S'thyagurodrigues'
p382
ssS'831503169073301272_1329013696'
p383
(dp384
g27
I1
sg28
I12
sg29
S'photo_lm10'
p385
ssS'831503952864184618_328109961'
p386
(dp387
g27
I0
sg28
I3
sg29
S'hkspa'
p388
ssS'831503224875616548_328109961'
p389
(dp390
g27
I0
sg28
I10
sg29
S'hkspa'
p391
ssS'831397769559026561_353421929'
p392
(dp393
g3
I2
sg4
I8
sg5
S'kcalsavara'
p394
ssS'831474743315321450_223250307'
p395
(dp396
g27
I0
sg28
I9
sg60
g61
(g62
g63
Ntp397
Rp398
(dp399
g67
g61
(g68
g63
Ntp400
Rp401
(dp402
g72
F-20.162102
sg73
F-42.9669722
sbsg74
g211
sg76
g89
sbsg29
S'vitinbaldez'
p403
ssS'831495105969752208_328109961'
p404
(dp405
g27
I0
sg28
I7
sg29
S'hkspa'
p406
ssS'831336290785977919_1446453096'
p407
(dp408
g18
I22
sg19
I45
sg20
S'osmelhores___'
p409
ssS'831480390845036190_1312000348'
p410
(dp411
g27
I4
sg28
I21
sg29
S'football2110'
p412
ssS'831383442628415267_1483840130'
p413
(dp414
g3
I0
sg4
I25
sg5
S'fcbarcelonea'
p415
ssS'831467676270168607_328109961'
p416
(dp417
g27
I0
sg28
I18
sg29
S'hkspa'
p418
ssS'831394459516015033_1520217947'
p419
(dp420
g3
I1
sg4
I6
sg5
S'balonparado'
p421
ssS'831425463080032705_364206637'
p422
(dp423
g3
I0
sg4
I5
sg5
S'barceloniesta10'
p424
ssS'831496526492607061_1519256031'
p425
(dp426
g27
I0
sg28
I7
sg29
S'hemo_10z'
p427
ssS'831361843082918794_1480244445'
p428
(dp429
g3
I0
sg4
I8
sg5
S'messiedits_'
p430
ssS'831466410663044259_1447693928'
p431
(dp432
g27
I0
sg28
I48
sg29
S'messi_fanatics'
p433
ssS'831018347535708182_1527653243'
p434
(dp435
g18
I1
sg19
I15
sg99
g61
(g62
g63
Ntp436
Rp437
(dp438
g67
g61
(g68
g63
Ntp439
Rp440
(dp441
g72
F41.101517826
sg73
F-78.718466107
sbsg74
g153
sg76
g89
sbsg20
S'fuckkxit'
p442
ssS'831367136275494537_1509837204'
p443
(dp444
g3
I1
sg4
I20
sg5
S'salsa_ksr'
p445
ssS'830646927991419117_1527653243'
p446
(dp447
g18
I3
sg19
I20
sg99
g61
(g62
g63
Ntp448
Rp449
(dp450
g67
g61
(g68
g63
Ntp451
Rp452
(dp453
g72
F41.096281107
sg73
F-78.718964495
sbsg74
g153
sg76
g89
sbsg20
S'fuckkxit'
p454
ssS'831334275834638274_274323770'
p455
(dp456
g18
I1
sg19
I30
sg20
S'funshinebearsofbarca'
p457
ssS'831432614564264227_1529304541'
p458
(dp459
g3
I0
sg4
I14
sg5
S'leomessi.fanz'
p460
ssS'831480813431307669_550907062'
p461
(dp462
g27
I34
sg28
I506
sg29
S'barcatalk'
p463
ssS'831421018930768475_1251882649'
p464
(dp465
g3
I0
sg4
I21
sg81
g61
(g62
g63
Ntp466
Rp467
(dp468
g67
g61
(g68
g63
Ntp469
Rp470
(dp471
g72
F29.309393642
sg73
F47.721147174
sbsg74
g88
sg76
g89
sbsg5
S'moh9ale7'
p472
ssS'831320335260704392_1360844470'
p473
(dp474
g18
I2
sg19
I38
sg20
S'adilovecara'
p475
ssS'831465193023038598_1447693928'
p476
(dp477
g18
I0
sg19
I2
sg20
S'messi_fanatics'
p478
ssS'831326000049654932_1461565098'
p479
(dp480
g18
I1
sg19
I19
sg20
S'reina_marello'
p481
ss.