c__builtin__
set
p0
((lp1
S'832273891459063889_178769087'
p2
aS'832278466244364491_679278313'
p3
aS'832276784420735156_679278313'
p4
aS'650092282775133385_1056225566'
p5
aS'832314867888075520_1462344011'
p6
aS'832247262384669384_1419333759'
p7
aS'832243894710404713_1421833296'
p8
aS'832227152936435965_1464263455'
p9
aS'832247326405500653_1243302758'
p10
aS'832203115850216568_1423918692'
p11
aS'832205539937993777_426856904'
p12
aS'831468515187900276_1400668214'
p13
aS'832205291367161961_1002112295'
p14
aS'832294999126417919_1470389327'
p15
aS'832215845923566956_1423918692'
p16
aS'832314173150330085_1421492430'
p17
aS'832201503014634378_899423823'
p18
aS'832293875253693854_1521833762'
p19
aS'832192057146275495_435211724'
p20
aS'832196248454939075_955211135'
p21
aS'832288700722377911_1444437108'
p22
aS'831517657571584517_511815313'
p23
aS'832191640612483300_1248959203'
p24
aS'832299009049302652_1130319804'
p25
aS'832193848627174883_566938078'
p26
aS'832292280047073240_970620092'
p27
aS'832317058496929050_1401873398'
p28
aS'832190217100029121_1337604954'
p29
aS'832228333957998753_1335591337'
p30
aS'832318068358596370_1508387512'
p31
aS'832216223618812271_1461511905'
p32
aS'832267839213096709_1343594562'
p33
aS'832291231791155529_1430136377'
p34
aS'832295588702953988_1470389327'
p35
aS'832228205698351378_1464263455'
p36
aS'832275886384393766_1487366066'
p37
aS'832314645254092545_1423918692'
p38
aS'832204248115838246_1321640254'
p39
aS'832314665333014555_1001405367'
p40
aS'832286477911056625_1335119087'
p41
aS'832217351266056566_195072125'
p42
aS'832304516067332270_1498487403'
p43
aS'832315349021260994_538470286'
p44
aS'832291558846204237_1430136377'
p45
aS'832315228712265057_1399030696'
p46
aS'832227794388123915_1464263455'
p47
aS'832272479703197530_1399030696'
p48
aS'832277735210731713_679278313'
p49
aS'832206077714875458_426856904'
p50
aS'832241369535704344_1437940986'
p51
aS'832309242763879991_1441768528'
p52
aS'832196015621999074_586812369'
p53
aS'832192782688270606_1216959557'
p54
aS'832215060453505399_1525941005'
p55
aS'832204926680417313_426856904'
p56
aS'832207260248851313_402682191'
p57
aS'832296274895610776_349790551'
p58
aS'832274662512776206_1491552164'
p59
aS'832235198207447489_1371628795'
p60
atp61
Rp62
.