c__builtin__
set
p0
((lp1
S'832072698411882211_473982308'
p2
aS'832053633825799760_520914254'
p3
aS'832073359292017467_1463742729'
p4
aS'832061221863537962_1449075878'
p5
aS'832055600056435479_1521463903'
p6
aS'832060771934054960_1463742729'
p7
aS'832054789264386499_1383874361'
p8
aS'832055030343300700_466898100'
p9
aS'832069735570025057_1243595073'
p10
aS'832066530165502181_1491945107'
p11
aS'832074285552773185_1530631801'
p12
aS'832074196828087246_1495333383'
p13
aS'832074328107480375_1529461116'
p14
aS'832061582707420589_1525965410'
p15
aS'832056568425295827_263085330'
p16
aS'832073937625504424_1522400469'
p17
atp18
Rp19
.